; Function Attrs: null_pointer_is_valid sspstrong uwtable
define internal fastcc nonnull ptr @Dot11DecryptAddSa(ptr noundef readonly captures(none) %0, ptr noundef %1, ptr noundef nonnull %2) unnamed_addr #0 {
  %4 = alloca %struct._DOT11DECRYPT_SEC_ASSOCIATION, align 8
  %.val = load ptr, ptr %0, align 8
  %5 = tail call ptr @g_hash_table_lookup(ptr noundef %.val, ptr noundef %1)
  %.not = icmp eq ptr %5, null
  br i1 %.not, label %7, label %6

6:                                                ; preds = %3
  call void @llvm.lifetime.start.p0(i64 176, ptr nonnull %4)
  call void @llvm.memcpy.p0.p0.i64(ptr noundef nonnull align 8 dereferenceable(176) %4, ptr noundef nonnull align 8 dereferenceable(176) %5, i64 176, i1 false)
  tail call void @llvm.memcpy.p0.p0.i64(ptr noundef nonnull align 8 dereferenceable(176) %5, ptr noundef nonnull align 8 dereferenceable(176) %2, i64 176, i1 false)
  call void @llvm.memcpy.p0.p0.i64(ptr noundef nonnull align 8 dereferenceable(176) %2, ptr noundef nonnull align 8 dereferenceable(176) %4, i64 176, i1 false)
  store ptr %2, ptr %5, align 8
  call void @llvm.lifetime.end.p0(i64 176, ptr nonnull %4)
  br label %11

7:                                                ; preds = %3
  %8 = tail call dereferenceable_or_null(12) ptr @g_memdup2(ptr noundef %1, i64 noundef 12) #16
  %9 = load ptr, ptr %0, align 8
  %10 = tail call i32 @g_hash_table_insert(ptr noundef %9, ptr noundef %8, ptr noundef nonnull %2)
  br label %11

11:                                               ; preds = %7, %6
  %.0 = phi ptr [ %5, %6 ], [ %2, %7 ]
  ret ptr %.0
}